; Function Attrs: mustprogress uwtable
define noundef range(i32 0, -2147483648) i32 @ustrcase_internalFold_77(i32 %0, i32 noundef %1, ptr readnone captures(none) %2, ptr noundef %3, i32 noundef %4, ptr noundef %5, i32 noundef %6, ptr noundef %7, ptr noundef nonnull align 4 dereferenceable(4) %8) #0 {
  %10 = tail call fastcc noundef i32 @_ZN6icu_7712_GLOBAL__N_17toLowerEijPDsiPKDsP12UCaseContextiiPNS_5EditsER10UErrorCode(i32 noundef -1, i32 noundef %1, ptr noundef %3, i32 noundef %4, ptr noundef %5, ptr noundef null, i32 noundef 0, i32 noundef %6, ptr noundef %7, ptr noundef nonnull align 4 dereferenceable(4) %8)
  %11 = load i32, ptr %8, align 4, !tbaa !3
  %12 = icmp sgt i32 %11, 0
  br i1 %12, label %_ZN6icu_7712_GLOBAL__N_126checkOverflowAndEditsErrorEiiPNS_5EditsER10UErrorCode.exit, label %13

13:                                               ; preds = %9
  %14 = icmp sgt i32 %10, %4
  br i1 %14, label %15, label %16

15:                                               ; preds = %13
  store i32 15, ptr %8, align 4, !tbaa !3
  br label %_ZN6icu_7712_GLOBAL__N_126checkOverflowAndEditsErrorEiiPNS_5EditsER10UErrorCode.exit

16:                                               ; preds = %13
  %.not7.i = icmp eq ptr %7, null
  br i1 %.not7.i, label %_ZN6icu_7712_GLOBAL__N_126checkOverflowAndEditsErrorEiiPNS_5EditsER10UErrorCode.exit, label %17

17:                                               ; preds = %16
  %18 = tail call noundef signext i8 @_ZNK6icu_775Edits11copyErrorToER10UErrorCode(ptr noundef nonnull align 8 dereferenceable(232) %7, ptr noundef nonnull align 4 dereferenceable(4) %8)
  br label %_ZN6icu_7712_GLOBAL__N_126checkOverflowAndEditsErrorEiiPNS_5EditsER10UErrorCode.exit

_ZN6icu_7712_GLOBAL__N_126checkOverflowAndEditsErrorEiiPNS_5EditsER10UErrorCode.exit: ; preds = %9, %15, %16, %17
  ret i32 %10
}